; Function Attrs: nounwind uwtable
define noundef zeroext i1 @lv_obj_remove_local_style_prop(ptr noundef %0, i8 noundef zeroext %1, i32 noundef %2) local_unnamed_addr #0 {
  %.not = icmp eq ptr %0, null
  br i1 %.not, label %.preheader, label %.preheader25

.preheader25:                                     ; preds = %3
  %4 = getelementptr inbounds nuw i8, ptr %0, i64 62
  %5 = load i16, ptr %4, align 2
  %6 = lshr i16 %5, 4
  %7 = and i16 %6, 63
  %8 = zext nneg i16 %7 to i32
  %.not31 = icmp eq i16 %7, 0
  br i1 %.not31, label %._crit_edge, label %.lr.ph

.lr.ph:                                           ; preds = %.preheader25
  %9 = getelementptr inbounds nuw i8, ptr %0, i64 24
  %10 = load ptr, ptr %9, align 8, !tbaa !38
  %wide.trip.count = zext nneg i16 %7 to i64
  br label %11

.preheader:                                       ; preds = %3, %.preheader
  br label %.preheader

11:                                               ; preds = %.lr.ph, %17
  %indvars.iv = phi i64 [ 0, %.lr.ph ], [ %indvars.iv.next, %17 ]
  %12 = getelementptr inbounds nuw %struct._lv_obj_style_t, ptr %10, i64 %indvars.iv, i32 1
  %13 = load i32, ptr %12, align 8
  %14 = and i32 %13, 16777216
  %.not23 = icmp ne i32 %14, 0
  %15 = and i32 %13, 16777215
  %16 = icmp eq i32 %15, %2
  %or.cond = and i1 %.not23, %16
  br i1 %or.cond, label %._crit_edge.loopexit, label %17

17:                                               ; preds = %11
  %indvars.iv.next = add nuw nsw i64 %indvars.iv, 1
  %exitcond.not = icmp eq i64 %indvars.iv.next, %wide.trip.count
  br i1 %exitcond.not, label %._crit_edge.thread, label %11, !llvm.loop !96

._crit_edge.loopexit:                             ; preds = %11
  %18 = trunc nuw nsw i64 %indvars.iv to i32
  br label %._crit_edge

._crit_edge:                                      ; preds = %._crit_edge.loopexit, %.preheader25
  %.021.lcssa = phi i32 [ 0, %.preheader25 ], [ %18, %._crit_edge.loopexit ]
  %19 = icmp eq i32 %.021.lcssa, %8
  br i1 %19, label %._crit_edge.thread, label %20

20:                                               ; preds = %._crit_edge
  %21 = getelementptr inbounds nuw i8, ptr %0, i64 24
  %22 = load ptr, ptr %21, align 8, !tbaa !38
  %23 = zext nneg i32 %.021.lcssa to i64
  %24 = getelementptr inbounds nuw %struct._lv_obj_style_t, ptr %22, i64 %23
  %25 = load ptr, ptr %24, align 8, !tbaa !49
  %26 = tail call zeroext i1 @lv_style_remove_prop(ptr noundef %25, i8 noundef zeroext %1) #9
  br i1 %26, label %27, label %._crit_edge.thread

27:                                               ; preds = %20
  tail call void @lv_obj_refresh_style(ptr noundef nonnull %0, i32 noundef %2, i8 noundef zeroext %1)
  br label %._crit_edge.thread

._crit_edge.thread:                               ; preds = %17, %20, %27, %._crit_edge
  %.0 = phi i1 [ false, %._crit_edge ], [ true, %27 ], [ false, %20 ], [ false, %17 ]
  ret i1 %.0
}